	.file	"jumps2.c"
	.text
.Ltext0:
	.section	.rodata
	.align 8
.LC0:
	.string	"Setjmp returned -- i = %d, %p\n"
.LC1:
	.string	"s = %s\n"
	.text
	.globl	a
	.type	a, @function
a:
.LFB6:
	.file 1 "src/ch10/jumps2.c"
	.loc 1 6 1
	.cfi_startproc
	pushq	%rbp
	.cfi_def_cfa_offset 16
	.cfi_offset 6, -16
	movq	%rsp, %rbp
	.cfi_def_cfa_register 6
	subq	$32, %rsp
	movq	%rdi, -24(%rbp)
	movq	%rsi, -32(%rbp)
	.loc 1 7 11
	movq	-32(%rbp), %rax
	movq	%rax, %rdi
	call	_setjmp@PLT
	movl	%eax, -4(%rbp)
	.loc 1 8 3
	movq	-24(%rbp), %rdx
	movl	-4(%rbp), %eax
	movl	%eax, %esi
	leaq	.LC0(%rip), %rdi
	movl	$0, %eax
	call	printf@PLT
	.loc 1 10 3
	movq	-24(%rbp), %rax
	movq	%rax, %rsi
	leaq	.LC1(%rip), %rdi
	movl	$0, %eax
	call	printf@PLT
	.loc 1 11 10
	movl	-4(%rbp), %eax
	.loc 1 12 1
	leave
	.cfi_def_cfa 7, 8
	ret
	.cfi_endproc
.LFE6:
	.size	a, .-a
	.section	.rodata
	.align 8
.LC2:
	.string	"In B: i=%d.  Calling longjmp(env, i)\n"
	.text
	.globl	b
	.type	b, @function
b:
.LFB7:
	.loc 1 15 1
	.cfi_startproc
	pushq	%rbp
	.cfi_def_cfa_offset 16
	.cfi_offset 6, -16
	movq	%rsp, %rbp
	.cfi_def_cfa_register 6
	subq	$16, %rsp
	movl	%edi, -4(%rbp)
	movq	%rsi, -16(%rbp)
	.loc 1 16 3
	movl	-4(%rbp), %eax
	movl	%eax, %esi
	leaq	.LC2(%rip), %rdi
	movl	$0, %eax
	call	printf@PLT
	.loc 1 18 3
	movl	-4(%rbp), %edx
	movq	-16(%rbp), %rax
	movl	%edx, %esi
	movq	%rax, %rdi
	call	longjmp@PLT
	.cfi_endproc
.LFE7:
	.size	b, .-b
	.section	.rodata
.LC3:
	.string	"Jim"
	.text
	.globl	main
	.type	main, @function
main:
.LFB8:
	.loc 1 22 1
	.cfi_startproc
	pushq	%rbp
	.cfi_def_cfa_offset 16
	.cfi_offset 6, -16
	movq	%rsp, %rbp
	.cfi_def_cfa_register 6
	subq	$224, %rsp
	movl	%edi, -212(%rbp)
	movq	%rsi, -224(%rbp)
	.loc 1 22 1
	movq	%fs:40, %rax
	movq	%rax, -8(%rbp)
	xorl	%eax, %eax
	.loc 1 25 7
	leaq	-208(%rbp), %rax
	movq	%rax, %rsi
	leaq	.LC3(%rip), %rdi
	call	a
	.loc 1 25 6
	testl	%eax, %eax
	je	.L6
	.loc 1 26 5
	movl	$0, %edi
	call	exit@PLT
.L6:
	.loc 1 27 3
	leaq	-208(%rbp), %rax
	movq	%rax, %rsi
	movl	$3, %edi
	call	b
	.loc 1 28 10
	movl	$0, %eax
	.loc 1 29 1
	movq	-8(%rbp), %rdx
	subq	%fs:40, %rdx
	je	.L8
	call	__stack_chk_fail@PLT
.L8:
	leave
	.cfi_def_cfa 7, 8
	ret
	.cfi_endproc
.LFE8:
	.size	main, .-main
.Letext0:
	.file 2 "/usr/include/bits/setjmp.h"
	.file 3 "/usr/include/bits/types/__sigset_t.h"
	.file 4 "/usr/include/bits/types/struct___jmp_buf_tag.h"
	.file 5 "/usr/include/setjmp.h"
	.section	.note.GNU-stack,"",@progbits
